target datalayout = "e-m:e-p270:32:32-p271:32:32-p272:64:64-i64:64-i128:128-f80:128-n8:16:32:64-S128"
target triple = "x86_64-pc-linux-gnu"

%class.GrowableArrayBase = type { i32, i32 }
%class.GrowableArrayMetadata = type { i64 }
%class.GrowableArrayView.5 = type { %class.GrowableArrayBase, ptr }
%class.GrowableArray.21 = type { %class.GrowableArrayWithAllocator.22, %class.GrowableArrayMetadata }
%class.GrowableArrayWithAllocator.22 = type { %class.GrowableArrayView.23 }
%class.GrowableArrayView.23 = type { %class.GrowableArrayBase, ptr }
%class.EdgeMoveOptimizer = type { %class.GrowableArray.38, %class.GrowableArray.21 }
%class.GrowableArray.38 = type { %class.GrowableArrayWithAllocator.39, %class.GrowableArrayMetadata }
%class.GrowableArrayWithAllocator.39 = type { %class.GrowableArrayView.40 }
%class.GrowableArrayView.40 = type { %class.GrowableArrayBase, ptr }

; Function Attrs: mustprogress nounwind uwtable
define linkonce_odr hidden void @_ZN17GrowableArrayViewIiE6at_putEiRKi(ptr noundef nonnull align 8 dereferenceable(16) %0, i32 noundef %1, ptr noundef nonnull align 4 dereferenceable(4) %2) #1 comdat align 2 {
  %4 = alloca ptr, align 8
  %5 = alloca i32, align 4
  %6 = alloca ptr, align 8
  store ptr %0, ptr %4, align 8
  store i32 %1, ptr %5, align 4
  store ptr %2, ptr %6, align 8
  %7 = load ptr, ptr %4, align 8
  %8 = load ptr, ptr %6, align 8
  %9 = load i32, ptr %8, align 4
  %10 = getelementptr inbounds %class.GrowableArrayView.23, ptr %7, i32 0, i32 1
  %11 = load ptr, ptr %10, align 8
  %12 = load i32, ptr %5, align 4
  %13 = sext i32 %12 to i64
  %14 = getelementptr inbounds i32, ptr %11, i64 %13
  store i32 %9, ptr %14, align 4
  ret void
}

; Function Attrs: mustprogress nounwind uwtable
define linkonce_odr hidden void @_ZN17GrowableArrayViewIP6LIR_OpE9remove_atEi(ptr noundef nonnull align 8 dereferenceable(16) %0, i32 noundef %1) #1 comdat align 2 {
  %3 = alloca ptr, align 8
  %4 = alloca i32, align 4
  %5 = alloca i32, align 4
  store ptr %0, ptr %3, align 8
  store i32 %1, ptr %4, align 4
  %6 = load ptr, ptr %3, align 8
  %7 = load i32, ptr %4, align 4
  %8 = add nsw i32 %7, 1
  store i32 %8, ptr %5, align 4
  br label %9

9:                                                ; preds = %27, %2
  %10 = load i32, ptr %5, align 4
  %11 = getelementptr inbounds %class.GrowableArrayBase, ptr %6, i32 0, i32 0
  %12 = load i32, ptr %11, align 8
  %13 = icmp slt i32 %10, %12
  br i1 %13, label %14, label %30

14:                                               ; preds = %9
  %15 = getelementptr inbounds %class.GrowableArrayView.5, ptr %6, i32 0, i32 1
  %16 = load ptr, ptr %15, align 8
  %17 = load i32, ptr %5, align 4
  %18 = sext i32 %17 to i64
  %19 = getelementptr inbounds ptr, ptr %16, i64 %18
  %20 = load ptr, ptr %19, align 8
  %21 = getelementptr inbounds %class.GrowableArrayView.5, ptr %6, i32 0, i32 1
  %22 = load ptr, ptr %21, align 8
  %23 = load i32, ptr %5, align 4
  %24 = sub nsw i32 %23, 1
  %25 = sext i32 %24 to i64
  %26 = getelementptr inbounds ptr, ptr %22, i64 %25
  store ptr %20, ptr %26, align 8
  br label %27

27:                                               ; preds = %14
  %28 = load i32, ptr %5, align 4
  %29 = add nsw i32 %28, 1
  store i32 %29, ptr %5, align 4
  br label %9, !llvm.loop !133

30:                                               ; preds = %9
  %31 = getelementptr inbounds %class.GrowableArrayBase, ptr %6, i32 0, i32 0
  %32 = load i32, ptr %31, align 8
  %33 = add nsw i32 %32, -1
  store i32 %33, ptr %31, align 8
  ret void
}

; Function Attrs: mustprogress nounwind uwtable
define linkonce_odr hidden noundef nonnull align 4 dereferenceable(4) ptr @_ZN17GrowableArrayViewIiE2atEi(ptr noundef nonnull align 8 dereferenceable(16) %0, i32 noundef %1) #1 comdat align 2 {
  %3 = alloca ptr, align 8
  %4 = alloca i32, align 4
  store ptr %0, ptr %3, align 8
  store i32 %1, ptr %4, align 4
  %5 = load ptr, ptr %3, align 8
  %6 = getelementptr inbounds %class.GrowableArrayView.23, ptr %5, i32 0, i32 1
  %7 = load ptr, ptr %6, align 8
  %8 = load i32, ptr %4, align 4
  %9 = sext i32 %8 to i64
  %10 = getelementptr inbounds i32, ptr %7, i64 %9
  ret ptr %10
}

; Function Attrs: mustprogress nounwind uwtable
define linkonce_odr hidden noundef nonnull align 8 dereferenceable(8) ptr @_ZN17GrowableArrayViewIP13GrowableArrayIP6LIR_OpEE2atEi(ptr noundef nonnull align 8 dereferenceable(16) %0, i32 noundef %1) #1 comdat align 2 {
  %3 = alloca ptr, align 8
  %4 = alloca i32, align 4
  store ptr %0, ptr %3, align 8
  store i32 %1, ptr %4, align 4
  %5 = load ptr, ptr %3, align 8
  %6 = getelementptr inbounds %class.GrowableArrayView.40, ptr %5, i32 0, i32 1
  %7 = load ptr, ptr %6, align 8
  %8 = load i32, ptr %4, align 4
  %9 = sext i32 %8 to i64
  %10 = getelementptr inbounds ptr, ptr %7, i64 %9
  ret ptr %10
}

; Function Attrs: mustprogress nounwind uwtable
define hidden void @_ZN17EdgeMoveOptimizer22remove_cur_instructionEib(ptr noundef nonnull align 8 dereferenceable(48) %0, i32 noundef %1, i1 noundef zeroext %2) #1 align 2 {
  %4 = alloca ptr, align 8
  %5 = alloca i32, align 4
  %6 = alloca i8, align 1
  %7 = alloca ptr, align 8
  %8 = alloca i32, align 4
  %9 = alloca i32, align 4
  store ptr %0, ptr %4, align 8
  store i32 %1, ptr %5, align 4
  %10 = zext i1 %2 to i8
  store i8 %10, ptr %6, align 1
  %11 = load ptr, ptr %4, align 8
  %12 = getelementptr inbounds %class.EdgeMoveOptimizer, ptr %11, i32 0, i32 0
  %13 = load i32, ptr %5, align 4
  %14 = call noundef nonnull align 8 dereferenceable(8) ptr @_ZN17GrowableArrayViewIP13GrowableArrayIP6LIR_OpEE2atEi(ptr noundef nonnull align 8 dereferenceable(16) %12, i32 noundef %13)
  %15 = load ptr, ptr %14, align 8
  store ptr %15, ptr %7, align 8
  %16 = getelementptr inbounds %class.EdgeMoveOptimizer, ptr %11, i32 0, i32 1
  %17 = load i32, ptr %5, align 4
  %18 = call noundef nonnull align 4 dereferenceable(4) ptr @_ZN17GrowableArrayViewIiE2atEi(ptr noundef nonnull align 8 dereferenceable(16) %16, i32 noundef %17)
  %19 = load i32, ptr %18, align 4
  store i32 %19, ptr %8, align 4
  %20 = load ptr, ptr %7, align 8
  %21 = load i32, ptr %8, align 4
  call void @_ZN17GrowableArrayViewIP6LIR_OpE9remove_atEi(ptr noundef nonnull align 8 dereferenceable(16) %20, i32 noundef %21)
  %22 = load i8, ptr %6, align 1
  %23 = trunc i8 %22 to i1
  br i1 %23, label %24, label %29

24:                                               ; preds = %3
  %25 = getelementptr inbounds %class.EdgeMoveOptimizer, ptr %11, i32 0, i32 1
  %26 = load i32, ptr %5, align 4
  %27 = load i32, ptr %8, align 4
  %28 = sub nsw i32 %27, 1
  store i32 %28, ptr %9, align 4
  call void @_ZN17GrowableArrayViewIiE6at_putEiRKi(ptr noundef nonnull align 8 dereferenceable(16) %25, i32 noundef %26, ptr noundef nonnull align 4 dereferenceable(4) %9)
  br label %29

29:                                               ; preds = %24, %3
  ret void
}