; Function Attrs: mustprogress nofree norecurse nosync nounwind memory(readwrite, inaccessiblemem: none) uwtable
define hidden void @_ZN17EdgeMoveOptimizer22remove_cur_instructionEib(ptr nocapture noundef nonnull readonly align 8 dereferenceable(48) %0, i32 noundef %1, i1 noundef zeroext %2) local_unnamed_addr #8 align 2 {
  %4 = getelementptr inbounds i8, ptr %0, i64 8
  %5 = load ptr, ptr %4, align 8
  %6 = sext i32 %1 to i64
  %7 = getelementptr inbounds ptr, ptr %5, i64 %6
  %8 = load ptr, ptr %7, align 8
  %9 = getelementptr inbounds i8, ptr %0, i64 32
  %10 = load ptr, ptr %9, align 8
  %11 = getelementptr inbounds i32, ptr %10, i64 %6
  %12 = load i32, ptr %11, align 4
  %.06.i = add nsw i32 %12, 1
  %13 = load i32, ptr %8, align 8
  %14 = icmp slt i32 %.06.i, %13
  br i1 %14, label %.lr.ph.i, label %_ZN17GrowableArrayViewIP6LIR_OpE9remove_atEi.exit

.lr.ph.i:                                         ; preds = %3
  %15 = getelementptr inbounds i8, ptr %8, i64 8
  %16 = sext i32 %12 to i64
  %17 = add nsw i64 %16, 1
  br label %18

18:                                               ; preds = %18, %.lr.ph.i
  %indvars.iv10.i = phi i64 [ %16, %.lr.ph.i ], [ %indvars.iv.next11.i, %18 ]
  %indvars.iv.i = phi i64 [ %17, %.lr.ph.i ], [ %indvars.iv.next.i, %18 ]
  %19 = load ptr, ptr %15, align 8
  %20 = getelementptr inbounds ptr, ptr %19, i64 %indvars.iv.i
  %21 = load ptr, ptr %20, align 8
  %22 = getelementptr inbounds ptr, ptr %19, i64 %indvars.iv10.i
  store ptr %21, ptr %22, align 8
  %indvars.iv.next.i = add nsw i64 %indvars.iv.i, 1
  %23 = load i32, ptr %8, align 8
  %24 = sext i32 %23 to i64
  %25 = icmp slt i64 %indvars.iv.next.i, %24
  %indvars.iv.next11.i = add nsw i64 %indvars.iv10.i, 1
  br i1 %25, label %18, label %_ZN17GrowableArrayViewIP6LIR_OpE9remove_atEi.exit, !llvm.loop !137

_ZN17GrowableArrayViewIP6LIR_OpE9remove_atEi.exit: ; preds = %18, %3
  %.lcssa.i = phi i32 [ %13, %3 ], [ %23, %18 ]
  %26 = add nsw i32 %.lcssa.i, -1
  store i32 %26, ptr %8, align 8
  br i1 %2, label %27, label %31

27:                                               ; preds = %_ZN17GrowableArrayViewIP6LIR_OpE9remove_atEi.exit
  %28 = add nsw i32 %12, -1
  %29 = load ptr, ptr %9, align 8
  %30 = getelementptr inbounds i32, ptr %29, i64 %6
  store i32 %28, ptr %30, align 4
  br label %31

31:                                               ; preds = %27, %_ZN17GrowableArrayViewIP6LIR_OpE9remove_atEi.exit
  ret void
}